; Function Attrs: mustprogress uwtable
define hidden noundef zeroext i1 @_ZeqRK11ext_numeralS1_(ptr noundef nonnull align 8 dereferenceable(40) %0, ptr noundef nonnull align 8 dereferenceable(40) %1) local_unnamed_addr #3 {
  %3 = load i32, ptr %0, align 8, !tbaa !3
  %4 = load i32, ptr %1, align 8, !tbaa !3
  %5 = icmp eq i32 %3, %4
  br i1 %5, label %6, label %_ZeqRK8rationalS1_.exit

6:                                                ; preds = %2
  %.not = icmp eq i32 %3, 1
  br i1 %.not, label %7, label %_ZeqRK8rationalS1_.exit

7:                                                ; preds = %6
  %8 = getelementptr inbounds nuw i8, ptr %0, i64 8
  %9 = getelementptr inbounds nuw i8, ptr %1, i64 8
  %10 = load ptr, ptr @_ZN8rational13g_mpq_managerE, align 8, !tbaa !14
  %11 = getelementptr inbounds nuw i8, ptr %0, i64 12
  %12 = load i8, ptr %11, align 4
  %13 = and i8 %12, 1
  %14 = icmp eq i8 %13, 0
  br i1 %14, label %15, label %_ZN11mpq_managerILb1EE2eqERK3mpzS3_.exit.i.i

15:                                               ; preds = %7
  %16 = getelementptr inbounds nuw i8, ptr %1, i64 12
  %17 = load i8, ptr %16, align 4
  %18 = and i8 %17, 1
  %19 = icmp eq i8 %18, 0
  br i1 %19, label %20, label %_ZN11mpq_managerILb1EE2eqERK3mpzS3_.exit.i.i

20:                                               ; preds = %15
  %21 = load i32, ptr %8, align 8, !tbaa !16
  %22 = load i32, ptr %9, align 8, !tbaa !16
  %23 = icmp eq i32 %21, %22
  br i1 %23, label %26, label %_ZeqRK8rationalS1_.exit

_ZN11mpq_managerILb1EE2eqERK3mpzS3_.exit.i.i:     ; preds = %15, %7
  %24 = tail call noundef i32 @_ZN11mpz_managerILb1EE11big_compareERK3mpzS3_(ptr noundef nonnull align 8 dereferenceable(728) %10, ptr noundef nonnull align 8 dereferenceable(32) %8, ptr noundef nonnull align 8 dereferenceable(32) %9)
  %25 = icmp eq i32 %24, 0
  br i1 %25, label %26, label %_ZeqRK8rationalS1_.exit

26:                                               ; preds = %_ZN11mpq_managerILb1EE2eqERK3mpzS3_.exit.i.i, %20
  %27 = getelementptr inbounds nuw i8, ptr %0, i64 24
  %28 = getelementptr inbounds nuw i8, ptr %1, i64 24
  %29 = getelementptr inbounds nuw i8, ptr %0, i64 28
  %30 = load i8, ptr %29, align 4
  %31 = and i8 %30, 1
  %32 = icmp eq i8 %31, 0
  br i1 %32, label %33, label %42

33:                                               ; preds = %26
  %34 = getelementptr inbounds nuw i8, ptr %1, i64 28
  %35 = load i8, ptr %34, align 4
  %36 = and i8 %35, 1
  %37 = icmp eq i8 %36, 0
  br i1 %37, label %38, label %42

38:                                               ; preds = %33
  %39 = load i32, ptr %27, align 8, !tbaa !16
  %40 = load i32, ptr %28, align 8, !tbaa !16
  %41 = icmp eq i32 %39, %40
  br label %_ZeqRK8rationalS1_.exit

42:                                               ; preds = %33, %26
  %43 = tail call noundef i32 @_ZN11mpz_managerILb1EE11big_compareERK3mpzS3_(ptr noundef nonnull align 8 dereferenceable(728) %10, ptr noundef nonnull align 8 dereferenceable(16) %27, ptr noundef nonnull align 8 dereferenceable(16) %28)
  %44 = icmp eq i32 %43, 0
  br label %_ZeqRK8rationalS1_.exit

_ZeqRK8rationalS1_.exit:                          ; preds = %42, %38, %_ZN11mpq_managerILb1EE2eqERK3mpzS3_.exit.i.i, %20, %6, %2
  %45 = phi i1 [ false, %2 ], [ true, %6 ], [ false, %_ZN11mpq_managerILb1EE2eqERK3mpzS3_.exit.i.i ], [ false, %20 ], [ %41, %38 ], [ %44, %42 ]
  ret i1 %45
}